; Function Attrs: mustprogress nounwind uwtable
define hidden void @_ZN10JavaThread13pd_last_frameEv(ptr dead_on_unwind noalias writable sret(%class.frame) align 8 %0, ptr noundef nonnull align 8 dereferenceable(1800) %1) local_unnamed_addr #0 align 2 {
  %3 = getelementptr inbounds i8, ptr %1, i64 928
  %4 = load volatile ptr, ptr %3, align 8
  %5 = getelementptr inbounds i8, ptr %1, i64 944
  %6 = load volatile ptr, ptr %5, align 8
  %7 = getelementptr inbounds i8, ptr %1, i64 936
  %8 = load volatile ptr, ptr %7, align 8
  store ptr %4, ptr %0, align 8
  %9 = getelementptr inbounds i8, ptr %0, i64 48
  store ptr %4, ptr %9, align 8
  %10 = getelementptr inbounds i8, ptr %0, i64 40
  store ptr %6, ptr %10, align 8
  %11 = getelementptr inbounds i8, ptr %0, i64 8
  store ptr %8, ptr %11, align 8
  %12 = getelementptr inbounds i8, ptr %0, i64 24
  store ptr null, ptr %12, align 8
  %13 = getelementptr inbounds i8, ptr %0, i64 36
  store i8 0, ptr %13, align 4
  %14 = tail call noundef ptr @_ZN9CodeCache9find_blobEPv(ptr noundef %8) #6
  %15 = getelementptr inbounds i8, ptr %0, i64 16
  store ptr %14, ptr %15, align 8
  %16 = icmp eq ptr %14, null
  br i1 %16, label %_ZNK5frame21get_deopt_original_pcEv.exit.thread.i.i.i, label %17

17:                                               ; preds = %2
  %18 = getelementptr inbounds i8, ptr %14, i64 52
  %19 = load i8, ptr %18, align 4
  %.not.i.i.i.i = icmp eq i8 %19, 1
  br i1 %.not.i.i.i.i, label %20, label %_ZNK5frame21get_deopt_original_pcEv.exit.thread.i.i.i

20:                                               ; preds = %17
  %21 = getelementptr inbounds i8, ptr %14, i64 168
  %22 = load i32, ptr %21, align 8
  %23 = sext i32 %22 to i64
  %24 = getelementptr inbounds i8, ptr %14, i64 %23
  %25 = icmp eq ptr %24, %8
  br i1 %25, label %_ZNK5frame21get_deopt_original_pcEv.exit.i.i.i, label %26

26:                                               ; preds = %20
  %27 = getelementptr inbounds i8, ptr %14, i64 209
  %28 = load i8, ptr %27, align 1
  %29 = icmp eq i8 %28, 3
  %30 = getelementptr inbounds i8, ptr %24, i64 5
  %31 = icmp eq ptr %30, %8
  %or.cond.i.i.i.i.i = select i1 %29, i1 %31, i1 false
  br i1 %or.cond.i.i.i.i.i, label %_ZNK5frame21get_deopt_original_pcEv.exit.i.i.i, label %_ZN7nmethod14is_deopt_entryEPh.exit.thread3.i.i.i.i.i

_ZN7nmethod14is_deopt_entryEPh.exit.thread3.i.i.i.i.i: ; preds = %26
  %32 = getelementptr inbounds i8, ptr %14, i64 172
  %33 = load i32, ptr %32, align 4
  %34 = sext i32 %33 to i64
  %35 = getelementptr inbounds i8, ptr %14, i64 %34
  %36 = icmp ne ptr %35, %8
  %brmerge.i.not.i.i.i.i = and i1 %29, %36
  br i1 %brmerge.i.not.i.i.i.i, label %37, label %_ZN7nmethod11is_deopt_pcEPh.exit.i.i.i.i

37:                                               ; preds = %_ZN7nmethod14is_deopt_entryEPh.exit.thread3.i.i.i.i.i
  %38 = getelementptr inbounds i8, ptr %35, i64 5
  %39 = icmp eq ptr %38, %8
  br i1 %39, label %_ZNK5frame21get_deopt_original_pcEv.exit.i.i.i, label %_ZNK5frame21get_deopt_original_pcEv.exit.thread.i.i.i

_ZN7nmethod11is_deopt_pcEPh.exit.i.i.i.i:         ; preds = %_ZN7nmethod14is_deopt_entryEPh.exit.thread3.i.i.i.i.i
  br i1 %36, label %_ZNK5frame21get_deopt_original_pcEv.exit.thread.i.i.i, label %_ZNK5frame21get_deopt_original_pcEv.exit.i.i.i

_ZNK5frame21get_deopt_original_pcEv.exit.i.i.i:   ; preds = %_ZN7nmethod11is_deopt_pcEPh.exit.i.i.i.i, %37, %26, %20
  %40 = tail call noundef ptr @_ZN7nmethod12orig_pc_addrEPK5frame(ptr noundef nonnull align 8 dereferenceable(214) %14, ptr noundef nonnull %0) #6
  %41 = load ptr, ptr %40, align 8
  %.not.i.i.i = icmp eq ptr %41, null
  br i1 %.not.i.i.i, label %_ZNK5frame21get_deopt_original_pcEv.exit._ZNK5frame21get_deopt_original_pcEv.exit.thread_crit_edge.i.i.i, label %42

_ZNK5frame21get_deopt_original_pcEv.exit._ZNK5frame21get_deopt_original_pcEv.exit.thread_crit_edge.i.i.i: ; preds = %_ZNK5frame21get_deopt_original_pcEv.exit.i.i.i
  %.pre.i.i.i = load ptr, ptr %15, align 8
  br label %_ZNK5frame21get_deopt_original_pcEv.exit.thread.i.i.i

42:                                               ; preds = %_ZNK5frame21get_deopt_original_pcEv.exit.i.i.i
  store ptr %41, ptr %11, align 8
  %43 = getelementptr inbounds i8, ptr %0, i64 32
  store i32 1, ptr %43, align 8
  br label %_ZN5frameC2EPlS0_Ph.exit

_ZNK5frame21get_deopt_original_pcEv.exit.thread.i.i.i: ; preds = %_ZNK5frame21get_deopt_original_pcEv.exit._ZNK5frame21get_deopt_original_pcEv.exit.thread_crit_edge.i.i.i, %_ZN7nmethod11is_deopt_pcEPh.exit.i.i.i.i, %37, %17, %2
  %44 = phi ptr [ %.pre.i.i.i, %_ZNK5frame21get_deopt_original_pcEv.exit._ZNK5frame21get_deopt_original_pcEv.exit.thread_crit_edge.i.i.i ], [ %14, %37 ], [ %14, %17 ], [ %14, %_ZN7nmethod11is_deopt_pcEPh.exit.i.i.i.i ], [ null, %2 ]
  %45 = load ptr, ptr @_ZN13SharedRuntime11_deopt_blobE, align 8
  %46 = icmp eq ptr %44, %45
  %47 = getelementptr inbounds i8, ptr %0, i64 32
  br i1 %46, label %48, label %49

48:                                               ; preds = %_ZNK5frame21get_deopt_original_pcEv.exit.thread.i.i.i
  store i32 1, ptr %47, align 8
  br label %_ZN5frameC2EPlS0_Ph.exit

49:                                               ; preds = %_ZNK5frame21get_deopt_original_pcEv.exit.thread.i.i.i
  store i32 0, ptr %47, align 8
  br label %_ZN5frameC2EPlS0_Ph.exit

_ZN5frameC2EPlS0_Ph.exit:                         ; preds = %42, %48, %49
  ret void
}